; ModuleID = 'source-C-CXX/22/1109.c'
source_filename = "source-C-CXX/22/1109.c"
target datalayout = "e-m:e-p270:32:32-p271:32:32-p272:64:64-i64:64-f80:128-n8:16:32:64-S128"
target triple = "x86_64-pc-linux-gnu"

; Function Attrs: nounwind sspstrong uwtable
define dso_local i32 @main() local_unnamed_addr #0 {
  %1 = alloca [100 x i8], align 16
  %2 = getelementptr inbounds [100 x i8], [100 x i8]* %1, i64 0, i64 0
  call void @llvm.lifetime.start.p0i8(i64 100, i8* nonnull %2) #5
  %3 = call i32 (i8*, ...) bitcast (i32 (...)* @gets to i32 (i8*, ...)*)(i8* nonnull %2) #5
  %4 = call i64 @strlen(i8* noundef nonnull %2) #6
  %5 = trunc i64 %4 to i32
  %6 = add i32 %5, -1
  %7 = icmp sgt i32 %6, -1
  br i1 %7, label %12, label %48

8:                                                ; preds = %35
  %9 = icmp sgt i32 %36, 0
  br i1 %9, label %10, label %48

10:                                               ; preds = %8
  %11 = zext i32 %36 to i64
  br label %40

12:                                               ; preds = %0, %35
  %13 = phi i32 [ %39, %35 ], [ %5, %0 ]
  %14 = phi i32 [ %37, %35 ], [ %6, %0 ]
  %15 = phi i32 [ %36, %35 ], [ %5, %0 ]
  %16 = sext i32 %13 to i64
  %17 = zext i32 %14 to i64
  %18 = getelementptr inbounds [100 x i8], [100 x i8]* %1, i64 0, i64 %17
  %19 = load i8, i8* %18, align 1, !tbaa !5
  %20 = icmp eq i8 %19, 32
  br i1 %20, label %21, label %35

21:                                               ; preds = %12
  %22 = icmp slt i32 %13, %15
  br i1 %22, label %23, label %33

23:                                               ; preds = %21
  %24 = sext i32 %15 to i64
  br label %25

25:                                               ; preds = %23, %25
  %26 = phi i64 [ %16, %23 ], [ %31, %25 ]
  %27 = getelementptr inbounds [100 x i8], [100 x i8]* %1, i64 0, i64 %26
  %28 = load i8, i8* %27, align 1, !tbaa !5
  %29 = sext i8 %28 to i32
  %30 = call i32 @putchar(i32 %29)
  %31 = add nsw i64 %26, 1
  %32 = icmp slt i64 %31, %24
  br i1 %32, label %25, label %33, !llvm.loop !8

33:                                               ; preds = %25, %21
  %34 = call i32 @putchar(i32 32)
  br label %35

35:                                               ; preds = %12, %33
  %36 = phi i32 [ %14, %33 ], [ %15, %12 ]
  %37 = add i32 %14, -1
  %38 = icmp sgt i32 %37, -1
  %39 = add i32 %13, -1
  br i1 %38, label %12, label %8, !llvm.loop !10

40:                                               ; preds = %10, %40
  %41 = phi i64 [ 0, %10 ], [ %46, %40 ]
  %42 = getelementptr inbounds [100 x i8], [100 x i8]* %1, i64 0, i64 %41
  %43 = load i8, i8* %42, align 1, !tbaa !5
  %44 = sext i8 %43 to i32
  %45 = call i32 @putchar(i32 %44)
  %46 = add nuw nsw i64 %41, 1
  %47 = icmp eq i64 %46, %11
  br i1 %47, label %48, label %40, !llvm.loop !11

48:                                               ; preds = %40, %0, %8
  call void @llvm.lifetime.end.p0i8(i64 100, i8* nonnull %2) #5
  ret i32 0
}

; Function Attrs: argmemonly mustprogress nofree nosync nounwind willreturn
declare void @llvm.lifetime.start.p0i8(i64 immarg, i8* nocapture) #1

declare i32 @gets(...) local_unnamed_addr #2

; Function Attrs: argmemonly mustprogress nofree nounwind readonly willreturn
declare i64 @strlen(i8* nocapture) local_unnamed_addr #3

; Function Attrs: argmemonly mustprogress nofree nosync nounwind willreturn
declare void @llvm.lifetime.end.p0i8(i64 immarg, i8* nocapture) #1

; Function Attrs: nofree nounwind
declare noundef i32 @putchar(i32 noundef) local_unnamed_addr #4


!llvm.module.flags = !{!0, !1, !2, !3}
!llvm.ident = !{!4}

!0 = !{i32 1, !"wchar_size", i32 4}
!1 = !{i32 7, !"PIC Level", i32 2}
!2 = !{i32 7, !"PIE Level", i32 2}
!3 = !{i32 7, !"uwtable", i32 1}
!4 = !{!"clang version 13.0.0"}
!5 = !{!6, !6, i64 0}
!6 = !{!"omnipotent char", !7, i64 0}
!7 = !{!"Simple C/C++ TBAA"}
!8 = distinct !{!8, !9}
!9 = !{!"llvm.loop.mustprogress"}
!10 = distinct !{!10, !9}
!11 = distinct !{!11, !9}
